; Function Attrs: mustprogress uwtable
define internal fastcc void @_ZN5osgeo4proj9operationL32createSimilarPropertiesOperationERKN7dropbox6oxygen2nnISt10shared_ptrINS1_19CoordinateOperationEEEE(ptr dead_on_unwind noalias nonnull writable align 8 %0, ptr noundef nonnull readonly align 8 captures(none) dereferenceable(16) %1) unnamed_addr #0 personality ptr @__gxx_personality_v0 {
  tail call void @_ZN5osgeo4proj4util11PropertyMapC1Ev(ptr noundef nonnull align 8 dereferenceable(8) %0)
  %3 = load ptr, ptr %1, align 8, !tbaa !65
  %4 = invoke noundef nonnull align 8 dereferenceable(8) ptr @_ZN5osgeo4proj9operation10addDomainsERNS0_4util11PropertyMapEPKNS0_6common11ObjectUsageE(ptr noundef nonnull align 8 dereferenceable(8) %0, ptr noundef %3)
          to label %5 unwind label %13

5:                                                ; preds = %2
  %6 = load ptr, ptr %1, align 8, !tbaa !65
  %7 = tail call noundef nonnull align 8 dereferenceable(32) ptr @_ZNK5osgeo4proj6common16IdentifiedObject7nameStrB5cxx11Ev(ptr noundef nonnull align 8 dereferenceable(40) %6) #51
  %8 = getelementptr inbounds nuw i8, ptr %7, i64 8
  %9 = load i64, ptr %8, align 8, !tbaa !11
  %10 = icmp eq i64 %9, 0
  br i1 %10, label %17, label %11

11:                                               ; preds = %5
  %12 = invoke noundef nonnull align 8 dereferenceable(8) ptr @_ZN5osgeo4proj4util11PropertyMap3setERKNSt7__cxx1112basic_stringIcSt11char_traitsIcESaIcEEESA_(ptr noundef nonnull align 8 dereferenceable(8) %0, ptr noundef nonnull align 8 dereferenceable(32) @_ZN5osgeo4proj6common16IdentifiedObject8NAME_KEYB5cxx11E, ptr noundef nonnull align 8 dereferenceable(32) %7)
          to label %._crit_edge unwind label %15

._crit_edge:                                      ; preds = %11
  %.pre = load ptr, ptr %1, align 8, !tbaa !65
  br label %17

13:                                               ; preds = %2
  %14 = landingpad { ptr, i32 }
          cleanup
  br label %30

15:                                               ; preds = %11
  %16 = landingpad { ptr, i32 }
          cleanup
  br label %30

17:                                               ; preds = %._crit_edge, %5
  %18 = phi ptr [ %.pre, %._crit_edge ], [ %6, %5 ]
  %19 = tail call noundef nonnull align 8 dereferenceable(32) ptr @_ZNK5osgeo4proj6common16IdentifiedObject7remarksB5cxx11Ev(ptr noundef nonnull align 8 dereferenceable(40) %18) #51
  %20 = getelementptr inbounds nuw i8, ptr %19, i64 8
  %21 = load i64, ptr %20, align 8, !tbaa !11
  %22 = icmp eq i64 %21, 0
  br i1 %22, label %27, label %23

23:                                               ; preds = %17
  %24 = invoke noundef nonnull align 8 dereferenceable(8) ptr @_ZN5osgeo4proj4util11PropertyMap3setERKNSt7__cxx1112basic_stringIcSt11char_traitsIcESaIcEEESA_(ptr noundef nonnull align 8 dereferenceable(8) %0, ptr noundef nonnull align 8 dereferenceable(32) @_ZN5osgeo4proj6common16IdentifiedObject11REMARKS_KEYB5cxx11E, ptr noundef nonnull align 8 dereferenceable(32) %19)
          to label %._crit_edge14 unwind label %25

._crit_edge14:                                    ; preds = %23
  %.pre15 = load ptr, ptr %1, align 8, !tbaa !65
  br label %27

25:                                               ; preds = %27, %23
  %26 = landingpad { ptr, i32 }
          cleanup
  br label %30

27:                                               ; preds = %._crit_edge14, %17
  %28 = phi ptr [ %.pre15, %._crit_edge14 ], [ %18, %17 ]
  invoke void @_ZN5osgeo4proj9operation21addModifiedIdentifierERNS0_4util11PropertyMapEPKNS0_6common16IdentifiedObjectEbb(ptr noundef nonnull align 8 dereferenceable(8) %0, ptr noundef %28, i1 noundef zeroext false, i1 noundef zeroext true)
          to label %29 unwind label %25

29:                                               ; preds = %27
  ret void

30:                                               ; preds = %15, %25, %13
  %.pn.pn = phi { ptr, i32 } [ %14, %13 ], [ %26, %25 ], [ %16, %15 ]
  tail call void @_ZN5osgeo4proj4util11PropertyMapD1Ev(ptr noundef nonnull align 8 dereferenceable(8) %0) #46
  resume { ptr, i32 } %.pn.pn
}